target datalayout = "e-m:e-p270:32:32-p271:32:32-p272:64:64-i64:64-i128:128-f80:128-n8:16:32:64-S128"
target triple = "x86_64-pc-linux-gnu"

%struct.XML_Parser_Struct = type { i32, ptr, ptr, ptr, ptr, ptr, ptr, ptr, ptr, ptr, ptr, ptr, ptr, ptr, ptr }
%struct._xmlParserCtxt = type { ptr, ptr, ptr, i32, i32, ptr, ptr, i32, i32, ptr, i32, i32, ptr, ptr, i32, i32, ptr, i32, %struct._xmlParserNodeInfoSeq, i32, i32, i32, i32, i32, i32, %struct._xmlValidCtxt, i32, i32, ptr, ptr, i32, i32, ptr, i64, i64, i32, i32, i32, ptr, ptr, ptr, ptr, i32, i32, ptr, i32, ptr, i32, i32, i32, i32, ptr, i32, i32, ptr, i32, i32, ptr, ptr, i32, i32, ptr, ptr, ptr, i32, i32, i32, ptr, ptr, ptr, ptr, ptr, i32, i32, i32, i32, ptr, i32, ptr, %struct._xmlError, i32, i64, i64, ptr, i32, i32, ptr, i32, i64 }
%struct._xmlParserNodeInfoSeq = type { i64, i64, ptr }
%struct._xmlValidCtxt = type { ptr, ptr, ptr, ptr, i32, i32, ptr, i32, ptr, i32, ptr, i32, i32, ptr, ptr, ptr }
%struct._xmlError = type { i32, i32, ptr, i32, ptr, i32, ptr, ptr, ptr, i32, i32, ptr, ptr }

@xmlFree = external global ptr, align 8

; Function Attrs: nounwind uwtable
define dso_local void @php_XML_ParserFree(ptr noundef %0) #0 {
  %2 = alloca ptr, align 8
  store ptr %0, ptr %2, align 8, !tbaa !11
  %3 = load ptr, ptr %2, align 8, !tbaa !11
  %4 = getelementptr inbounds nuw %struct.XML_Parser_Struct, ptr %3, i32 0, i32 0
  %5 = load i32, ptr %4, align 8, !tbaa !13
  %6 = icmp ne i32 %5, 0
  br i1 %6, label %7, label %18

7:                                                ; preds = %1
  %8 = load ptr, ptr %2, align 8, !tbaa !11
  %9 = getelementptr inbounds nuw %struct.XML_Parser_Struct, ptr %8, i32 0, i32 1
  %10 = load ptr, ptr %9, align 8, !tbaa !17
  %11 = icmp ne ptr %10, null
  br i1 %11, label %12, label %17

12:                                               ; preds = %7
  %13 = load ptr, ptr @xmlFree, align 8, !tbaa !53
  %14 = load ptr, ptr %2, align 8, !tbaa !11
  %15 = getelementptr inbounds nuw %struct.XML_Parser_Struct, ptr %14, i32 0, i32 1
  %16 = load ptr, ptr %15, align 8, !tbaa !17
  call void %13(ptr noundef %16)
  br label %17

17:                                               ; preds = %12, %7
  br label %18

18:                                               ; preds = %17, %1
  %19 = load ptr, ptr %2, align 8, !tbaa !11
  %20 = getelementptr inbounds nuw %struct.XML_Parser_Struct, ptr %19, i32 0, i32 3
  %21 = load ptr, ptr %20, align 8, !tbaa !18
  %22 = getelementptr inbounds nuw %struct._xmlParserCtxt, ptr %21, i32 0, i32 2
  %23 = load ptr, ptr %22, align 8, !tbaa !84
  %24 = icmp ne ptr %23, null
  br i1 %24, label %25, label %35

25:                                               ; preds = %18
  %26 = load ptr, ptr %2, align 8, !tbaa !11
  %27 = getelementptr inbounds nuw %struct.XML_Parser_Struct, ptr %26, i32 0, i32 3
  %28 = load ptr, ptr %27, align 8, !tbaa !18
  %29 = getelementptr inbounds nuw %struct._xmlParserCtxt, ptr %28, i32 0, i32 2
  %30 = load ptr, ptr %29, align 8, !tbaa !84
  call void @xmlFreeDoc(ptr noundef %30)
  %31 = load ptr, ptr %2, align 8, !tbaa !11
  %32 = getelementptr inbounds nuw %struct.XML_Parser_Struct, ptr %31, i32 0, i32 3
  %33 = load ptr, ptr %32, align 8, !tbaa !18
  %34 = getelementptr inbounds nuw %struct._xmlParserCtxt, ptr %33, i32 0, i32 2
  store ptr null, ptr %34, align 8, !tbaa !84
  br label %35

35:                                               ; preds = %25, %18
  %36 = load ptr, ptr %2, align 8, !tbaa !11
  %37 = getelementptr inbounds nuw %struct.XML_Parser_Struct, ptr %36, i32 0, i32 3
  %38 = load ptr, ptr %37, align 8, !tbaa !18
  call void @xmlFreeParserCtxt(ptr noundef %38)
  %39 = load ptr, ptr %2, align 8, !tbaa !11
  call void @_efree(ptr noundef %39)
  ret void
}