; Function Attrs: nounwind uwtable
define dso_local void @php_XML_ParserFree(ptr noundef %0) local_unnamed_addr #0 {
  %2 = load i32, ptr %0, align 8, !tbaa !44
  %.not = icmp eq i32 %2, 0
  br i1 %.not, label %8, label %3

3:                                                ; preds = %1
  %4 = getelementptr inbounds nuw i8, ptr %0, i64 8
  %5 = load ptr, ptr %4, align 8, !tbaa !45
  %.not9 = icmp eq ptr %5, null
  br i1 %.not9, label %8, label %6

6:                                                ; preds = %3
  %7 = load ptr, ptr @xmlFree, align 8, !tbaa !72
  tail call void %7(ptr noundef nonnull %5) #11
  br label %8

8:                                                ; preds = %3, %6, %1
  %9 = getelementptr inbounds nuw i8, ptr %0, i64 24
  %10 = load ptr, ptr %9, align 8, !tbaa !4
  %11 = getelementptr inbounds nuw i8, ptr %10, i64 16
  %12 = load ptr, ptr %11, align 8, !tbaa !73
  %.not10 = icmp eq ptr %12, null
  br i1 %.not10, label %16, label %13

13:                                               ; preds = %8
  tail call void @xmlFreeDoc(ptr noundef nonnull %12) #11
  %14 = load ptr, ptr %9, align 8, !tbaa !4
  %15 = getelementptr inbounds nuw i8, ptr %14, i64 16
  store ptr null, ptr %15, align 8, !tbaa !73
  br label %16

16:                                               ; preds = %13, %8
  %17 = phi ptr [ %14, %13 ], [ %10, %8 ]
  tail call void @xmlFreeParserCtxt(ptr noundef nonnull %17) #11
  tail call void @_efree(ptr noundef nonnull %0) #11
  ret void
}